; Function Attrs: mustprogress nounwind uwtable
define dso_local void @_ZNK4llvm3pdb9PDBSymbol14dumpPropertiesEv(ptr nocapture noundef nonnull readonly align 8 dereferenceable(32) %0) local_unnamed_addr #2 align 2 {
  %2 = tail call noundef nonnull align 8 dereferenceable(96) ptr @_ZN4llvm4outsEv() #12
  %3 = getelementptr inbounds nuw i8, ptr %2, i64 24
  %4 = load ptr, ptr %3, align 8
  %5 = getelementptr inbounds nuw i8, ptr %2, i64 32
  %6 = load ptr, ptr %5, align 8
  %7 = icmp eq ptr %4, %6
  br i1 %7, label %8, label %10

8:                                                ; preds = %1
  %9 = tail call noundef nonnull align 8 dereferenceable(48) ptr @_ZN4llvm11raw_ostream5writeEPKcm(ptr noundef nonnull align 8 dereferenceable(48) %2, ptr noundef nonnull @.str, i64 noundef 1) #12
  br label %_ZN4llvm11raw_ostreamlsEPKc.exit

10:                                               ; preds = %1
  store i8 10, ptr %6, align 1
  %11 = load ptr, ptr %5, align 8
  %12 = getelementptr inbounds i8, ptr %11, i64 1
  store ptr %12, ptr %5, align 8
  br label %_ZN4llvm11raw_ostreamlsEPKc.exit

_ZN4llvm11raw_ostreamlsEPKc.exit:                 ; preds = %8, %10
  %13 = tail call noundef nonnull align 8 dereferenceable(96) ptr @_ZN4llvm4outsEv() #12
  %14 = getelementptr inbounds nuw i8, ptr %0, i64 24
  %15 = load ptr, ptr %14, align 8
  %16 = load ptr, ptr %15, align 8
  %17 = getelementptr inbounds i8, ptr %16, i64 16
  %18 = load ptr, ptr %17, align 8
  tail call void %18(ptr noundef nonnull align 8 dereferenceable(8) %15, ptr noundef nonnull align 8 dereferenceable(48) %13, i32 noundef 0, i32 noundef -1, i32 noundef 0) #12
  %19 = tail call noundef nonnull align 8 dereferenceable(96) ptr @_ZN4llvm4outsEv() #12
  %20 = getelementptr inbounds nuw i8, ptr %19, i64 32
  %21 = load ptr, ptr %20, align 8
  %22 = getelementptr inbounds nuw i8, ptr %19, i64 16
  %23 = load ptr, ptr %22, align 8
  %.not.i = icmp eq ptr %21, %23
  br i1 %.not.i, label %_ZN4llvm11raw_ostream5flushEv.exit, label %24

24:                                               ; preds = %_ZN4llvm11raw_ostreamlsEPKc.exit
  tail call void @_ZN4llvm11raw_ostream14flush_nonemptyEv(ptr noundef nonnull align 8 dereferenceable(48) %19) #12
  br label %_ZN4llvm11raw_ostream5flushEv.exit

_ZN4llvm11raw_ostream5flushEv.exit:               ; preds = %_ZN4llvm11raw_ostreamlsEPKc.exit, %24
  ret void
}